target datalayout = "e-m:e-p270:32:32-p271:32:32-p272:64:64-i64:64-i128:128-f80:128-n8:16:32:64-S128"
target triple = "x86_64-unknown-linux-gnu"

%"class.absl::lts_20230802::log_internal::Voidify" = type { i8 }
%"class.absl::lts_20230802::log_internal::LogMessageFatal" = type { %"class.absl::lts_20230802::log_internal::LogMessage" }
%"class.absl::lts_20230802::log_internal::LogMessage" = type { %"class.absl::lts_20230802::base_internal::ErrnoSaver", %"class.std::unique_ptr" }
%"class.absl::lts_20230802::base_internal::ErrnoSaver" = type { i32 }
%"class.std::unique_ptr" = type { %"struct.std::__uniq_ptr_data" }
%"struct.std::__uniq_ptr_data" = type { %"class.std::__uniq_ptr_impl" }
%"class.std::__uniq_ptr_impl" = type { %"class.std::tuple" }
%"class.std::tuple" = type { %"struct.std::_Tuple_impl" }
%"struct.std::_Tuple_impl" = type { %"struct.std::_Head_base.12" }
%"struct.std::_Head_base.12" = type { ptr }

@.str.2 = private unnamed_addr constant [142 x i8] c"generated/home/dtcxzyw/WorkSpace/Projects/compilers/llvm-opt-benchmark/bench/protobuf/protobuf/src/google/protobuf/compiler/code_generator.cc\00", align 1
@.str.4 = private unnamed_addr constant [55 x i8] c"This GeneratorContext does not support ListParsedFiles\00", align 1

; Function Attrs: mustprogress nounwind uwtable
define linkonce_odr hidden void @_ZNKO4absl12lts_2023080212log_internal7VoidifyaaINS1_10LogMessageEEEvRKT_(ptr noundef nonnull align 1 dereferenceable(1) %this, ptr noundef nonnull align 8 dereferenceable(16) %0) #4 comdat align 2 {
entry:
  %this.addr = alloca ptr, align 8
  %.addr = alloca ptr, align 8
  store ptr %this, ptr %this.addr, align 8
  store ptr %0, ptr %.addr, align 8
  ret void
}

; Function Attrs: mustprogress nounwind uwtable
define linkonce_odr hidden noundef nonnull align 8 dereferenceable(16) ptr @_ZN4absl12lts_2023080212log_internal10LogMessage14InternalStreamEv(ptr noundef nonnull align 8 dereferenceable(16) %this) #4 comdat align 2 {
entry:
  %this.addr = alloca ptr, align 8
  store ptr %this, ptr %this.addr, align 8
  %this1 = load ptr, ptr %this.addr, align 8
  ret ptr %this1
}

; Function Attrs: mustprogress uwtable
define void @_ZN6google8protobuf8compiler16GeneratorContext15ListParsedFilesEPSt6vectorIPKNS0_14FileDescriptorESaIS6_EE(ptr noundef nonnull align 8 dereferenceable(8) %this, ptr noundef %output) unnamed_addr #6 align 2 personality ptr @__gxx_personality_v0 {
entry:
  %this.addr = alloca ptr, align 8
  %output.addr = alloca ptr, align 8
  %ref.tmp = alloca %"class.absl::lts_20230802::log_internal::Voidify", align 1
  %ref.tmp2 = alloca %"class.absl::lts_20230802::log_internal::LogMessageFatal", align 8
  %exn.slot = alloca ptr, align 8
  %ehselector.slot = alloca i32, align 4
  store ptr %this, ptr %this.addr, align 8
  store ptr %output, ptr %output.addr, align 8
  call void @_ZN4absl12lts_2023080212log_internal15LogMessageFatalC1EPKci(ptr noundef nonnull align 8 dereferenceable(16) %ref.tmp2, ptr noundef @.str.2, i32 noundef 97) #19
  %call = invoke noundef nonnull align 8 dereferenceable(16) ptr @_ZN4absl12lts_2023080212log_internal10LogMessage14InternalStreamEv(ptr noundef nonnull align 8 dereferenceable(16) %ref.tmp2)
          to label %invoke.cont unwind label %lpad

invoke.cont:                                      ; preds = %entry
  %call4 = invoke noundef nonnull align 8 dereferenceable(16) ptr @_ZN4absl12lts_2023080212log_internal10LogMessagelsILi55EEERS2_RAT__Kc(ptr noundef nonnull align 8 dereferenceable(16) %call, ptr noundef nonnull align 1 dereferenceable(55) @.str.4)
          to label %invoke.cont3 unwind label %lpad

invoke.cont3:                                     ; preds = %invoke.cont
  invoke void @_ZNKO4absl12lts_2023080212log_internal7VoidifyaaINS1_10LogMessageEEEvRKT_(ptr noundef nonnull align 1 dereferenceable(1) %ref.tmp, ptr noundef nonnull align 8 dereferenceable(16) %call4)
          to label %invoke.cont5 unwind label %lpad

invoke.cont5:                                     ; preds = %invoke.cont3
  call void @_ZN4absl12lts_2023080212log_internal15LogMessageFatalD1Ev(ptr noundef nonnull align 8 dereferenceable(16) %ref.tmp2) #18
  unreachable

lpad:                                             ; preds = %invoke.cont3, %invoke.cont, %entry
  %0 = landingpad { ptr, i32 }
          cleanup
  %1 = extractvalue { ptr, i32 } %0, 0
  store ptr %1, ptr %exn.slot, align 8
  %2 = extractvalue { ptr, i32 } %0, 1
  store i32 %2, ptr %ehselector.slot, align 4
  call void @_ZN4absl12lts_2023080212log_internal15LogMessageFatalD1Ev(ptr noundef nonnull align 8 dereferenceable(16) %ref.tmp2) #18
  unreachable

3:                                                ; No predecessors!
  br label %eh.resume

eh.resume:                                        ; preds = %3
  %exn = load ptr, ptr %exn.slot, align 8
  %sel = load i32, ptr %ehselector.slot, align 4
  %lpad.val = insertvalue { ptr, i32 } poison, ptr %exn, 0
  %lpad.val6 = insertvalue { ptr, i32 } %lpad.val, i32 %sel, 1
  resume { ptr, i32 } %lpad.val6
}